target datalayout = "e-m:e-p270:32:32-p271:32:32-p272:64:64-i64:64-i128:128-f80:128-n8:16:32:64-S128"
target triple = "x86_64-pc-linux-gnu"

%struct.AVFilterContext = type { ptr, ptr, ptr, ptr, ptr, i32, ptr, ptr, i32, ptr, ptr, i32, i32, ptr, ptr, ptr, ptr, i32, ptr, i32, i32 }
%struct.ThumbContext = type { ptr, i32, i32, i32, ptr, %struct.AVRational, i32, ptr, [4 x i32], [4 x i32] }
%struct.AVRational = type { i32, i32 }
%struct.thumb_frame = type { ptr, [768 x i32] }
%struct.AVChannelLayout = type { i32, i32, %union.anon.1, ptr }
%union.anon.1 = type { i64 }
%struct.AVFrame = type { [8 x ptr], [8 x i32], ptr, i32, i32, i32, i32, i32, %struct.AVRational, i64, i64, %struct.AVRational, i32, ptr, i32, i32, [8 x ptr], ptr, i32, ptr, i32, i32, i32, i32, i32, i32, i32, i64, ptr, i32, ptr, ptr, i64, i64, i64, i64, ptr, %struct.AVChannelLayout, i64 }

@.str.3 = private unnamed_addr constant [61 x i8] c"frame id #%d (pts_time=%f) selected from a set of %d images\0A\00", align 1

; Function Attrs: inlinehint nounwind uwtable
define internal double @av_q2d(i64 %0) #5 {
  %2 = alloca %struct.AVRational, align 4
  store i64 %0, ptr %2, align 4
  %3 = getelementptr inbounds nuw %struct.AVRational, ptr %2, i32 0, i32 0
  %4 = load i32, ptr %3, align 4, !tbaa !93
  %5 = sitofp i32 %4 to double
  %6 = getelementptr inbounds nuw %struct.AVRational, ptr %2, i32 0, i32 1
  %7 = load i32, ptr %6, align 4, !tbaa !94
  %8 = sitofp i32 %7 to double
  %9 = fdiv nsz double %5, %8
  ret double %9
}

; Function Attrs: nounwind uwtable
define internal double @frame_sum_square_err(ptr noundef %0, ptr noundef %1) #1 {
  %3 = alloca ptr, align 8
  %4 = alloca ptr, align 8
  %5 = alloca i32, align 4
  %6 = alloca double, align 8
  %7 = alloca double, align 8
  store ptr %0, ptr %3, align 8, !tbaa !48
  store ptr %1, ptr %4, align 8, !tbaa !91
  call void @llvm.lifetime.start.p0(i64 4, ptr %5) #10
  call void @llvm.lifetime.start.p0(i64 8, ptr %6) #10
  call void @llvm.lifetime.start.p0(i64 8, ptr %7) #10
  store double 0.000000e+00, ptr %7, align 8, !tbaa !83
  store i32 0, ptr %5, align 4, !tbaa !30
  br label %8

8:                                                ; preds = %28, %2
  %9 = load i32, ptr %5, align 4, !tbaa !30
  %10 = icmp slt i32 %9, 768
  br i1 %10, label %11, label %31

11:                                               ; preds = %8
  %12 = load ptr, ptr %4, align 8, !tbaa !91
  %13 = load i32, ptr %5, align 4, !tbaa !30
  %14 = sext i32 %13 to i64
  %15 = getelementptr inbounds double, ptr %12, i64 %14
  %16 = load double, ptr %15, align 8, !tbaa !83
  %17 = load ptr, ptr %3, align 8, !tbaa !48
  %18 = load i32, ptr %5, align 4, !tbaa !30
  %19 = sext i32 %18 to i64
  %20 = getelementptr inbounds i32, ptr %17, i64 %19
  %21 = load i32, ptr %20, align 4, !tbaa !30
  %22 = sitofp i32 %21 to double
  %23 = fsub nsz double %16, %22
  store double %23, ptr %6, align 8, !tbaa !83
  %24 = load double, ptr %6, align 8, !tbaa !83
  %25 = load double, ptr %6, align 8, !tbaa !83
  %26 = load double, ptr %7, align 8, !tbaa !83
  %27 = call nsz double @llvm.fmuladd.f64(double %24, double %25, double %26)
  store double %27, ptr %7, align 8, !tbaa !83
  br label %28

28:                                               ; preds = %11
  %29 = load i32, ptr %5, align 4, !tbaa !30
  %30 = add nsw i32 %29, 1
  store i32 %30, ptr %5, align 4, !tbaa !30
  br label %8, !llvm.loop !92

31:                                               ; preds = %8
  %32 = load double, ptr %7, align 8, !tbaa !83
  call void @llvm.lifetime.end.p0(i64 8, ptr %7) #10
  call void @llvm.lifetime.end.p0(i64 8, ptr %6) #10
  call void @llvm.lifetime.end.p0(i64 4, ptr %5) #10
  ret double %32
}

; Function Attrs: nounwind uwtable
define internal ptr @get_best_frame(ptr noundef %0) #1 {
  %2 = alloca ptr, align 8
  %3 = alloca ptr, align 8
  %4 = alloca ptr, align 8
  %5 = alloca i32, align 4
  %6 = alloca i32, align 4
  %7 = alloca i32, align 4
  %8 = alloca i32, align 4
  %9 = alloca [768 x double], align 16
  %10 = alloca double, align 8
  %11 = alloca double, align 8
  store ptr %0, ptr %2, align 8, !tbaa !4
  call void @llvm.lifetime.start.p0(i64 8, ptr %3) #10
  call void @llvm.lifetime.start.p0(i64 8, ptr %4) #10
  %12 = load ptr, ptr %2, align 8, !tbaa !4
  %13 = getelementptr inbounds nuw %struct.AVFilterContext, ptr %12, i32 0, i32 9
  %14 = load ptr, ptr %13, align 8, !tbaa !9
  store ptr %14, ptr %4, align 8, !tbaa !22
  call void @llvm.lifetime.start.p0(i64 4, ptr %5) #10
  call void @llvm.lifetime.start.p0(i64 4, ptr %6) #10
  call void @llvm.lifetime.start.p0(i64 4, ptr %7) #10
  store i32 0, ptr %7, align 4, !tbaa !30
  call void @llvm.lifetime.start.p0(i64 4, ptr %8) #10
  %15 = load ptr, ptr %4, align 8, !tbaa !22
  %16 = getelementptr inbounds nuw %struct.ThumbContext, ptr %15, i32 0, i32 1
  %17 = load i32, ptr %16, align 8, !tbaa !47
  store i32 %17, ptr %8, align 4, !tbaa !30
  call void @llvm.lifetime.start.p0(i64 6144, ptr %9) #10
  call void @llvm.memset.p0.i64(ptr align 16 %9, i8 0, i64 6144, i1 false)
  call void @llvm.lifetime.start.p0(i64 8, ptr %10) #10
  call void @llvm.lifetime.start.p0(i64 8, ptr %11) #10
  store double -1.000000e+00, ptr %11, align 8, !tbaa !83
  store i32 0, ptr %6, align 4, !tbaa !30
  br label %18

18:                                               ; preds = %56, %1
  %19 = load i32, ptr %6, align 4, !tbaa !30
  %20 = sext i32 %19 to i64
  %21 = icmp ult i64 %20, 768
  br i1 %21, label %22, label %59

22:                                               ; preds = %18
  store i32 0, ptr %5, align 4, !tbaa !30
  br label %23

23:                                               ; preds = %45, %22
  %24 = load i32, ptr %5, align 4, !tbaa !30
  %25 = load i32, ptr %8, align 4, !tbaa !30
  %26 = icmp slt i32 %24, %25
  br i1 %26, label %27, label %48

27:                                               ; preds = %23
  %28 = load ptr, ptr %4, align 8, !tbaa !22
  %29 = getelementptr inbounds nuw %struct.ThumbContext, ptr %28, i32 0, i32 4
  %30 = load ptr, ptr %29, align 8, !tbaa !29
  %31 = load i32, ptr %5, align 4, !tbaa !30
  %32 = sext i32 %31 to i64
  %33 = getelementptr inbounds %struct.thumb_frame, ptr %30, i64 %32
  %34 = getelementptr inbounds nuw %struct.thumb_frame, ptr %33, i32 0, i32 1
  %35 = load i32, ptr %6, align 4, !tbaa !30
  %36 = sext i32 %35 to i64
  %37 = getelementptr inbounds [768 x i32], ptr %34, i64 0, i64 %36
  %38 = load i32, ptr %37, align 4, !tbaa !30
  %39 = sitofp i32 %38 to double
  %40 = load i32, ptr %6, align 4, !tbaa !30
  %41 = sext i32 %40 to i64
  %42 = getelementptr inbounds [768 x double], ptr %9, i64 0, i64 %41
  %43 = load double, ptr %42, align 8, !tbaa !83
  %44 = fadd nsz double %43, %39
  store double %44, ptr %42, align 8, !tbaa !83
  br label %45

45:                                               ; preds = %27
  %46 = load i32, ptr %5, align 4, !tbaa !30
  %47 = add nsw i32 %46, 1
  store i32 %47, ptr %5, align 4, !tbaa !30
  br label %23, !llvm.loop !85

48:                                               ; preds = %23
  %49 = load i32, ptr %8, align 4, !tbaa !30
  %50 = sitofp i32 %49 to double
  %51 = load i32, ptr %6, align 4, !tbaa !30
  %52 = sext i32 %51 to i64
  %53 = getelementptr inbounds [768 x double], ptr %9, i64 0, i64 %52
  %54 = load double, ptr %53, align 8, !tbaa !83
  %55 = fdiv nsz double %54, %50
  store double %55, ptr %53, align 8, !tbaa !83
  br label %56

56:                                               ; preds = %48
  %57 = load i32, ptr %6, align 4, !tbaa !30
  %58 = add nsw i32 %57, 1
  store i32 %58, ptr %6, align 4, !tbaa !30
  br label %18, !llvm.loop !86

59:                                               ; preds = %18
  store i32 0, ptr %5, align 4, !tbaa !30
  br label %60

60:                                               ; preds = %85, %59
  %61 = load i32, ptr %5, align 4, !tbaa !30
  %62 = load i32, ptr %8, align 4, !tbaa !30
  %63 = icmp slt i32 %61, %62
  br i1 %63, label %64, label %88

64:                                               ; preds = %60
  %65 = load ptr, ptr %4, align 8, !tbaa !22
  %66 = getelementptr inbounds nuw %struct.ThumbContext, ptr %65, i32 0, i32 4
  %67 = load ptr, ptr %66, align 8, !tbaa !29
  %68 = load i32, ptr %5, align 4, !tbaa !30
  %69 = sext i32 %68 to i64
  %70 = getelementptr inbounds %struct.thumb_frame, ptr %67, i64 %69
  %71 = getelementptr inbounds nuw %struct.thumb_frame, ptr %70, i32 0, i32 1
  %72 = getelementptr inbounds [768 x i32], ptr %71, i64 0, i64 0
  %73 = getelementptr inbounds [768 x double], ptr %9, i64 0, i64 0
  %74 = call nsz double @frame_sum_square_err(ptr noundef %72, ptr noundef %73)
  store double %74, ptr %10, align 8, !tbaa !83
  %75 = load i32, ptr %5, align 4, !tbaa !30
  %76 = icmp eq i32 %75, 0
  br i1 %76, label %81, label %77

77:                                               ; preds = %64
  %78 = load double, ptr %10, align 8, !tbaa !83
  %79 = load double, ptr %11, align 8, !tbaa !83
  %80 = fcmp nsz olt double %78, %79
  br i1 %80, label %81, label %84

81:                                               ; preds = %77, %64
  %82 = load i32, ptr %5, align 4, !tbaa !30
  store i32 %82, ptr %7, align 4, !tbaa !30
  %83 = load double, ptr %10, align 8, !tbaa !83
  store double %83, ptr %11, align 8, !tbaa !83
  br label %84

84:                                               ; preds = %81, %77
  br label %85

85:                                               ; preds = %84
  %86 = load i32, ptr %5, align 4, !tbaa !30
  %87 = add nsw i32 %86, 1
  store i32 %87, ptr %5, align 4, !tbaa !30
  br label %60, !llvm.loop !87

88:                                               ; preds = %60
  store i32 0, ptr %5, align 4, !tbaa !30
  br label %89

89:                                               ; preds = %114, %88
  %90 = load i32, ptr %5, align 4, !tbaa !30
  %91 = load i32, ptr %8, align 4, !tbaa !30
  %92 = icmp slt i32 %90, %91
  br i1 %92, label %93, label %117

93:                                               ; preds = %89
  %94 = load ptr, ptr %4, align 8, !tbaa !22
  %95 = getelementptr inbounds nuw %struct.ThumbContext, ptr %94, i32 0, i32 4
  %96 = load ptr, ptr %95, align 8, !tbaa !29
  %97 = load i32, ptr %5, align 4, !tbaa !30
  %98 = sext i32 %97 to i64
  %99 = getelementptr inbounds %struct.thumb_frame, ptr %96, i64 %98
  %100 = getelementptr inbounds nuw %struct.thumb_frame, ptr %99, i32 0, i32 1
  %101 = getelementptr inbounds [768 x i32], ptr %100, i64 0, i64 0
  call void @llvm.memset.p0.i64(ptr align 8 %101, i8 0, i64 3072, i1 false)
  %102 = load i32, ptr %5, align 4, !tbaa !30
  %103 = load i32, ptr %7, align 4, !tbaa !30
  %104 = icmp ne i32 %102, %103
  br i1 %104, label %105, label %113

105:                                              ; preds = %93
  %106 = load ptr, ptr %4, align 8, !tbaa !22
  %107 = getelementptr inbounds nuw %struct.ThumbContext, ptr %106, i32 0, i32 4
  %108 = load ptr, ptr %107, align 8, !tbaa !29
  %109 = load i32, ptr %5, align 4, !tbaa !30
  %110 = sext i32 %109 to i64
  %111 = getelementptr inbounds %struct.thumb_frame, ptr %108, i64 %110
  %112 = getelementptr inbounds nuw %struct.thumb_frame, ptr %111, i32 0, i32 0
  call void @av_frame_free(ptr noundef %112)
  br label %113

113:                                              ; preds = %105, %93
  br label %114

114:                                              ; preds = %113
  %115 = load i32, ptr %5, align 4, !tbaa !30
  %116 = add nsw i32 %115, 1
  store i32 %116, ptr %5, align 4, !tbaa !30
  br label %89, !llvm.loop !88

117:                                              ; preds = %89
  %118 = load ptr, ptr %4, align 8, !tbaa !22
  %119 = getelementptr inbounds nuw %struct.ThumbContext, ptr %118, i32 0, i32 1
  store i32 0, ptr %119, align 8, !tbaa !47
  %120 = load ptr, ptr %4, align 8, !tbaa !22
  %121 = getelementptr inbounds nuw %struct.ThumbContext, ptr %120, i32 0, i32 4
  %122 = load ptr, ptr %121, align 8, !tbaa !29
  %123 = load i32, ptr %7, align 4, !tbaa !30
  %124 = sext i32 %123 to i64
  %125 = getelementptr inbounds %struct.thumb_frame, ptr %122, i64 %124
  %126 = getelementptr inbounds nuw %struct.thumb_frame, ptr %125, i32 0, i32 0
  %127 = load ptr, ptr %126, align 8, !tbaa !31
  store ptr %127, ptr %3, align 8, !tbaa !38
  %128 = load ptr, ptr %4, align 8, !tbaa !22
  %129 = getelementptr inbounds nuw %struct.ThumbContext, ptr %128, i32 0, i32 2
  %130 = load i32, ptr %129, align 4, !tbaa !89
  %131 = icmp ne i32 %130, -8
  br i1 %131, label %132, label %148

132:                                              ; preds = %117
  %133 = load ptr, ptr %2, align 8, !tbaa !4
  %134 = load ptr, ptr %4, align 8, !tbaa !22
  %135 = getelementptr inbounds nuw %struct.ThumbContext, ptr %134, i32 0, i32 2
  %136 = load i32, ptr %135, align 4, !tbaa !89
  %137 = load i32, ptr %7, align 4, !tbaa !30
  %138 = load ptr, ptr %3, align 8, !tbaa !38
  %139 = getelementptr inbounds nuw %struct.AVFrame, ptr %138, i32 0, i32 9
  %140 = load i64, ptr %139, align 8, !tbaa !90
  %141 = sitofp i64 %140 to double
  %142 = load ptr, ptr %4, align 8, !tbaa !22
  %143 = getelementptr inbounds nuw %struct.ThumbContext, ptr %142, i32 0, i32 5
  %144 = load i64, ptr %143, align 8
  %145 = call nsz double @av_q2d(i64 %144)
  %146 = fmul nsz double %141, %145
  %147 = load i32, ptr %8, align 4, !tbaa !30
  call void (ptr, i32, ptr, ...) @av_log(ptr noundef %133, i32 noundef %136, ptr noundef @.str.3, i32 noundef %137, double noundef %146, i32 noundef %147)
  br label %148

148:                                              ; preds = %132, %117
  %149 = load ptr, ptr %4, align 8, !tbaa !22
  %150 = getelementptr inbounds nuw %struct.ThumbContext, ptr %149, i32 0, i32 4
  %151 = load ptr, ptr %150, align 8, !tbaa !29
  %152 = load i32, ptr %7, align 4, !tbaa !30
  %153 = sext i32 %152 to i64
  %154 = getelementptr inbounds %struct.thumb_frame, ptr %151, i64 %153
  %155 = getelementptr inbounds nuw %struct.thumb_frame, ptr %154, i32 0, i32 0
  store ptr null, ptr %155, align 8, !tbaa !31
  %156 = load ptr, ptr %3, align 8, !tbaa !38
  call void @llvm.lifetime.end.p0(i64 8, ptr %11) #10
  call void @llvm.lifetime.end.p0(i64 8, ptr %10) #10
  call void @llvm.lifetime.end.p0(i64 6144, ptr %9) #10
  call void @llvm.lifetime.end.p0(i64 4, ptr %8) #10
  call void @llvm.lifetime.end.p0(i64 4, ptr %7) #10
  call void @llvm.lifetime.end.p0(i64 4, ptr %6) #10
  call void @llvm.lifetime.end.p0(i64 4, ptr %5) #10
  call void @llvm.lifetime.end.p0(i64 8, ptr %4) #10
  call void @llvm.lifetime.end.p0(i64 8, ptr %3) #10
  ret ptr %156
}